target datalayout = "e-m:e-p270:32:32-p271:32:32-p272:64:64-i64:64-i128:128-f80:128-n8:16:32:64-S128"
target triple = "x86_64-pc-linux-gnu"

%struct.BuildCtx = type { ptr, i32, ptr, ptr, ptr, ptr, i64, i32, i32, i32, i32, i32, ptr, ptr, ptr, ptr, ptr, ptr, ptr, ptr, ptr, [200 x %struct.BuildReloc] }
%struct.BuildReloc = type { i32, i32, i32 }
%struct.BuildSym = type { ptr, i32 }

@.str.368 = private unnamed_addr constant [1 x i8] zeroinitializer, align 1
@.str.369 = private unnamed_addr constant [2 x i8] c"_\00", align 1
@.str.370 = private unnamed_addr constant [7 x i8] c"%s%s%s\00", align 1

; Function Attrs: nounwind uwtable
define internal ptr @sym_decorate(ptr noundef %0, ptr noundef %1, ptr noundef %2) #0 {
  %4 = alloca ptr, align 8
  %5 = alloca ptr, align 8
  %6 = alloca ptr, align 8
  %7 = alloca [256 x i8], align 16
  %8 = alloca ptr, align 8
  %9 = alloca ptr, align 8
  store ptr %0, ptr %4, align 8, !tbaa !4
  store ptr %1, ptr %5, align 8, !tbaa !46
  store ptr %2, ptr %6, align 8, !tbaa !46
  call void @llvm.lifetime.start.p0(i64 256, ptr %7) #12
  call void @llvm.lifetime.start.p0(i64 8, ptr %8) #12
  call void @llvm.lifetime.start.p0(i64 8, ptr %9) #12
  %10 = load ptr, ptr %4, align 8, !tbaa !4
  %11 = getelementptr inbounds nuw %struct.BuildCtx, ptr %10, i32 0, i32 1
  %12 = load i32, ptr %11, align 8, !tbaa !80
  %13 = icmp eq i32 %12, 2
  %14 = select i1 %13, ptr @.str.369, ptr @.str.368
  store ptr %14, ptr %9, align 8, !tbaa !46
  %15 = getelementptr inbounds [256 x i8], ptr %7, i64 0, i64 0
  %16 = load ptr, ptr %9, align 8, !tbaa !46
  %17 = load ptr, ptr %5, align 8, !tbaa !46
  %18 = load ptr, ptr %6, align 8, !tbaa !46
  %19 = call i32 (ptr, ptr, ...) @sprintf(ptr noundef %15, ptr noundef @.str.370, ptr noundef %16, ptr noundef %17, ptr noundef %18) #12
  %20 = getelementptr inbounds [256 x i8], ptr %7, i64 0, i64 0
  %21 = call ptr @strchr(ptr noundef %20, i32 noundef 64) #17
  store ptr %21, ptr %8, align 8, !tbaa !46
  %22 = load ptr, ptr %8, align 8, !tbaa !46
  %23 = icmp ne ptr %22, null
  br i1 %23, label %24, label %26

24:                                               ; preds = %3
  %25 = load ptr, ptr %8, align 8, !tbaa !46
  store i8 0, ptr %25, align 1, !tbaa !52
  br label %26

26:                                               ; preds = %24, %3
  %27 = getelementptr inbounds [256 x i8], ptr %7, i64 0, i64 0
  %28 = call i64 @strlen(ptr noundef %27) #17
  %29 = add i64 %28, 1
  %30 = call noalias ptr @malloc(i64 noundef %29) #16
  store ptr %30, ptr %8, align 8, !tbaa !46
  %31 = load ptr, ptr %8, align 8, !tbaa !46
  %32 = getelementptr inbounds [256 x i8], ptr %7, i64 0, i64 0
  %33 = call ptr @strcpy(ptr noundef %31, ptr noundef %32) #12
  %34 = load ptr, ptr %8, align 8, !tbaa !46
  call void @llvm.lifetime.end.p0(i64 8, ptr %9) #12
  call void @llvm.lifetime.end.p0(i64 8, ptr %8) #12
  call void @llvm.lifetime.end.p0(i64 256, ptr %7) #12
  ret ptr %34
}

; Function Attrs: nounwind uwtable
define internal void @sym_insert(ptr noundef %0, i32 noundef %1, ptr noundef %2, ptr noundef %3) #0 {
  %5 = alloca ptr, align 8
  %6 = alloca i32, align 4
  %7 = alloca ptr, align 8
  %8 = alloca ptr, align 8
  %9 = alloca i64, align 8
  store ptr %0, ptr %5, align 8, !tbaa !4
  store i32 %1, ptr %6, align 4, !tbaa !9
  store ptr %2, ptr %7, align 8, !tbaa !46
  store ptr %3, ptr %8, align 8, !tbaa !46
  call void @llvm.lifetime.start.p0(i64 8, ptr %9) #12
  %10 = load ptr, ptr %5, align 8, !tbaa !4
  %11 = getelementptr inbounds nuw %struct.BuildCtx, ptr %10, i32 0, i32 9
  %12 = load i32, ptr %11, align 8, !tbaa !95
  %13 = add nsw i32 %12, 1
  store i32 %13, ptr %11, align 8, !tbaa !95
  %14 = sext i32 %12 to i64
  store i64 %14, ptr %9, align 8, !tbaa !11
  br label %15

15:                                               ; preds = %30, %4
  %16 = load i64, ptr %9, align 8, !tbaa !11
  %17 = icmp sgt i64 %16, 0
  br i1 %17, label %18, label %44

18:                                               ; preds = %15
  %19 = load ptr, ptr %5, align 8, !tbaa !4
  %20 = getelementptr inbounds nuw %struct.BuildCtx, ptr %19, i32 0, i32 13
  %21 = load ptr, ptr %20, align 8, !tbaa !94
  %22 = load i64, ptr %9, align 8, !tbaa !11
  %23 = sub nsw i64 %22, 1
  %24 = getelementptr inbounds %struct.BuildSym, ptr %21, i64 %23
  %25 = getelementptr inbounds nuw %struct.BuildSym, ptr %24, i32 0, i32 1
  %26 = load i32, ptr %25, align 8, !tbaa !101
  %27 = load i32, ptr %6, align 4, !tbaa !9
  %28 = icmp sle i32 %26, %27
  br i1 %28, label %29, label %30

29:                                               ; preds = %18
  br label %44

30:                                               ; preds = %18
  %31 = load ptr, ptr %5, align 8, !tbaa !4
  %32 = getelementptr inbounds nuw %struct.BuildCtx, ptr %31, i32 0, i32 13
  %33 = load ptr, ptr %32, align 8, !tbaa !94
  %34 = load i64, ptr %9, align 8, !tbaa !11
  %35 = getelementptr inbounds %struct.BuildSym, ptr %33, i64 %34
  %36 = load ptr, ptr %5, align 8, !tbaa !4
  %37 = getelementptr inbounds nuw %struct.BuildCtx, ptr %36, i32 0, i32 13
  %38 = load ptr, ptr %37, align 8, !tbaa !94
  %39 = load i64, ptr %9, align 8, !tbaa !11
  %40 = sub nsw i64 %39, 1
  %41 = getelementptr inbounds %struct.BuildSym, ptr %38, i64 %40
  call void @llvm.memcpy.p0.p0.i64(ptr align 8 %35, ptr align 8 %41, i64 16, i1 false), !tbaa.struct !113
  %42 = load i64, ptr %9, align 8, !tbaa !11
  %43 = add nsw i64 %42, -1
  store i64 %43, ptr %9, align 8, !tbaa !11
  br label %15, !llvm.loop !114

44:                                               ; preds = %29, %15
  %45 = load i32, ptr %6, align 4, !tbaa !9
  %46 = load ptr, ptr %5, align 8, !tbaa !4
  %47 = getelementptr inbounds nuw %struct.BuildCtx, ptr %46, i32 0, i32 13
  %48 = load ptr, ptr %47, align 8, !tbaa !94
  %49 = load i64, ptr %9, align 8, !tbaa !11
  %50 = getelementptr inbounds %struct.BuildSym, ptr %48, i64 %49
  %51 = getelementptr inbounds nuw %struct.BuildSym, ptr %50, i32 0, i32 1
  store i32 %45, ptr %51, align 8, !tbaa !101
  %52 = load ptr, ptr %5, align 8, !tbaa !4
  %53 = load ptr, ptr %7, align 8, !tbaa !46
  %54 = load ptr, ptr %8, align 8, !tbaa !46
  %55 = call ptr @sym_decorate(ptr noundef %52, ptr noundef %53, ptr noundef %54)
  %56 = load ptr, ptr %5, align 8, !tbaa !4
  %57 = getelementptr inbounds nuw %struct.BuildCtx, ptr %56, i32 0, i32 13
  %58 = load ptr, ptr %57, align 8, !tbaa !94
  %59 = load i64, ptr %9, align 8, !tbaa !11
  %60 = getelementptr inbounds %struct.BuildSym, ptr %58, i64 %59
  %61 = getelementptr inbounds nuw %struct.BuildSym, ptr %60, i32 0, i32 0
  store ptr %55, ptr %61, align 8, !tbaa !99
  call void @llvm.lifetime.end.p0(i64 8, ptr %9) #12
  ret void
}