; Function Attrs: nofree nounwind uwtable
define internal fastcc void @sym_insert(ptr noundef nonnull captures(none) %0, i32 noundef %1, ptr noundef %2, ptr noundef %3) unnamed_addr #0 {
  %5 = alloca [256 x i8], align 16
  %6 = getelementptr inbounds nuw i8, ptr %0, i64 64
  %7 = load i32, ptr %6, align 8, !tbaa !85
  %8 = add nsw i32 %7, 1
  store i32 %8, ptr %6, align 8, !tbaa !85
  %9 = sext i32 %7 to i64
  %10 = getelementptr inbounds nuw i8, ptr %0, i64 88
  %11 = icmp sgt i32 %7, 0
  br i1 %11, label %.lr.ph, label %._crit_edge

.lr.ph:                                           ; preds = %4, %16
  %.017 = phi i64 [ %18, %16 ], [ %9, %4 ]
  %12 = load ptr, ptr %10, align 8, !tbaa !84
  %13 = getelementptr %struct.BuildSym, ptr %12, i64 %.017
  %14 = getelementptr i8, ptr %13, i64 -8
  %15 = load i32, ptr %14, align 8, !tbaa !91
  %.not = icmp sgt i32 %15, %1
  br i1 %.not, label %16, label %._crit_edge

16:                                               ; preds = %.lr.ph
  %17 = getelementptr i8, ptr %13, i64 -16
  tail call void @llvm.memcpy.p0.p0.i64(ptr noundef nonnull align 8 dereferenceable(16) %13, ptr noundef nonnull align 8 dereferenceable(16) %17, i64 16, i1 false), !tbaa.struct !103
  %18 = add nsw i64 %.017, -1
  %19 = icmp sgt i64 %.017, 1
  br i1 %19, label %.lr.ph, label %._crit_edge, !llvm.loop !104

._crit_edge:                                      ; preds = %16, %.lr.ph, %4
  %.0.lcssa = phi i64 [ %9, %4 ], [ %.017, %.lr.ph ], [ 0, %16 ]
  %20 = load ptr, ptr %10, align 8, !tbaa !84
  %21 = getelementptr inbounds %struct.BuildSym, ptr %20, i64 %.0.lcssa, i32 1
  store i32 %1, ptr %21, align 8, !tbaa !91
  %22 = getelementptr i8, ptr %0, i64 8
  %.val = load i32, ptr %22, align 8, !tbaa !61
  call void @llvm.lifetime.start.p0(i64 256, ptr nonnull %5) #25
  %23 = icmp eq i32 %.val, 2
  %24 = select i1 %23, ptr @.str.369, ptr @.str.368
  %25 = call i32 (ptr, ptr, ...) @sprintf(ptr noundef nonnull dereferenceable(1) %5, ptr noundef nonnull dereferenceable(1) @.str.370, ptr noundef nonnull %24, ptr noundef %2, ptr noundef %3) #25
  %26 = call ptr @strchr(ptr noundef nonnull dereferenceable(1) %5, i32 noundef 64) #28
  %.not.i = icmp eq ptr %26, null
  br i1 %.not.i, label %sym_decorate.exit, label %27

27:                                               ; preds = %._crit_edge
  store i8 0, ptr %26, align 1, !tbaa !44
  br label %sym_decorate.exit

sym_decorate.exit:                                ; preds = %._crit_edge, %27
  %28 = call i64 @strlen(ptr noundef nonnull dereferenceable(1) %5) #28
  %29 = add i64 %28, 1
  %30 = call noalias noundef ptr @malloc(i64 noundef %29) #29
  %31 = call ptr @strcpy(ptr noundef nonnull dereferenceable(1) %30, ptr noundef nonnull dereferenceable(1) %5) #25
  call void @llvm.lifetime.end.p0(i64 256, ptr nonnull %5) #25
  %32 = load ptr, ptr %10, align 8, !tbaa !84
  %33 = getelementptr inbounds %struct.BuildSym, ptr %32, i64 %.0.lcssa
  store ptr %30, ptr %33, align 8, !tbaa !89
  ret void
}